; Function Attrs: mustprogress uwtable
define internal noundef i32 @_ZL34hb_font_get_glyph_v_origin_defaultP9hb_font_tPvjPiS2_S1_(ptr nocapture noundef readonly %0, ptr nocapture readnone %1, i32 noundef %2, ptr noundef %3, ptr noundef %4, ptr nocapture readnone %5) #1 {
  %7 = getelementptr inbounds i8, ptr %0, i64 24
  %8 = load ptr, ptr %7, align 8
  store i32 0, ptr %4, align 4
  store i32 0, ptr %3, align 4
  %9 = getelementptr inbounds i8, ptr %8, i64 144
  %10 = load ptr, ptr %9, align 8
  %11 = getelementptr inbounds i8, ptr %10, i64 112
  %12 = load ptr, ptr %11, align 8
  %13 = getelementptr inbounds i8, ptr %8, i64 152
  %14 = load ptr, ptr %13, align 8
  %15 = getelementptr inbounds i8, ptr %10, i64 16
  %16 = load ptr, ptr %15, align 8
  %.not.i = icmp eq ptr %16, null
  br i1 %.not.i, label %_ZN9hb_font_t18get_glyph_v_originEjPiS0_.exit, label %17

17:                                               ; preds = %6
  %18 = getelementptr inbounds i8, ptr %16, i64 80
  %19 = load ptr, ptr %18, align 8
  br label %_ZN9hb_font_t18get_glyph_v_originEjPiS0_.exit

_ZN9hb_font_t18get_glyph_v_originEjPiS0_.exit:    ; preds = %6, %17
  %20 = phi ptr [ %19, %17 ], [ null, %6 ]
  %21 = tail call noundef i32 %12(ptr noundef nonnull %8, ptr noundef %14, i32 noundef %2, ptr noundef nonnull %3, ptr noundef nonnull %4, ptr noundef %20)
  %.not = icmp eq i32 %21, 0
  br i1 %.not, label %51, label %22

22:                                               ; preds = %_ZN9hb_font_t18get_glyph_v_originEjPiS0_.exit
  %23 = load i32, ptr %3, align 4
  %24 = load ptr, ptr %7, align 8
  %.not.i.i.i = icmp eq ptr %24, null
  br i1 %.not.i.i.i, label %_ZN9hb_font_t23parent_scale_x_positionEi.exit.i, label %25

25:                                               ; preds = %22
  %26 = getelementptr inbounds i8, ptr %24, i64 40
  %27 = load i32, ptr %26, align 8
  %28 = getelementptr inbounds i8, ptr %0, i64 40
  %29 = load i32, ptr %28, align 8
  %.not6.i.i.i = icmp eq i32 %27, %29
  br i1 %.not6.i.i.i, label %_ZN9hb_font_t23parent_scale_x_positionEi.exit.i, label %30

30:                                               ; preds = %25
  %31 = sext i32 %23 to i64
  %32 = sext i32 %29 to i64
  %33 = mul nsw i64 %32, %31
  %34 = sext i32 %27 to i64
  %35 = sdiv i64 %33, %34
  %36 = trunc i64 %35 to i32
  br label %_ZN9hb_font_t23parent_scale_x_positionEi.exit.i

_ZN9hb_font_t23parent_scale_x_positionEi.exit.i:  ; preds = %30, %25, %22
  %.0.i.i.i = phi i32 [ %36, %30 ], [ %23, %25 ], [ %23, %22 ]
  store i32 %.0.i.i.i, ptr %3, align 4
  %37 = load i32, ptr %4, align 4
  %38 = load ptr, ptr %7, align 8
  %.not.i.i5.i = icmp eq ptr %38, null
  br i1 %.not.i.i5.i, label %_ZN9hb_font_t21parent_scale_positionEPiS0_.exit, label %39

39:                                               ; preds = %_ZN9hb_font_t23parent_scale_x_positionEi.exit.i
  %40 = getelementptr inbounds i8, ptr %38, i64 44
  %41 = load i32, ptr %40, align 4
  %42 = getelementptr inbounds i8, ptr %0, i64 44
  %43 = load i32, ptr %42, align 4
  %.not6.i.i6.i = icmp eq i32 %41, %43
  br i1 %.not6.i.i6.i, label %_ZN9hb_font_t21parent_scale_positionEPiS0_.exit, label %44

44:                                               ; preds = %39
  %45 = sext i32 %37 to i64
  %46 = sext i32 %43 to i64
  %47 = mul nsw i64 %46, %45
  %48 = sext i32 %41 to i64
  %49 = sdiv i64 %47, %48
  %50 = trunc i64 %49 to i32
  br label %_ZN9hb_font_t21parent_scale_positionEPiS0_.exit

_ZN9hb_font_t21parent_scale_positionEPiS0_.exit:  ; preds = %_ZN9hb_font_t23parent_scale_x_positionEi.exit.i, %39, %44
  %.0.i.i7.i = phi i32 [ %50, %44 ], [ %37, %39 ], [ %37, %_ZN9hb_font_t23parent_scale_x_positionEi.exit.i ]
  store i32 %.0.i.i7.i, ptr %4, align 4
  br label %51

51:                                               ; preds = %_ZN9hb_font_t21parent_scale_positionEPiS0_.exit, %_ZN9hb_font_t18get_glyph_v_originEjPiS0_.exit
  ret i32 %21
}